; Function Attrs: mustprogress nofree norecurse nosync nounwind willreturn memory(write, argmem: readwrite, inaccessiblemem: none) uwtable
define internal fastcc void @stbtt__csctx_rmove_to(ptr noundef nonnull captures(none) %0, float noundef %1, float noundef %2) unnamed_addr #36 {
  tail call fastcc void @stbtt__csctx_close_shape(ptr noundef %0)
  %4 = getelementptr inbounds nuw i8, ptr %0, i64 16
  %5 = load float, ptr %4, align 8
  %6 = fadd float %1, %5
  store float %6, ptr %4, align 8
  %7 = getelementptr inbounds nuw i8, ptr %0, i64 8
  store float %6, ptr %7, align 8
  %8 = getelementptr inbounds nuw i8, ptr %0, i64 20
  %9 = load float, ptr %8, align 4
  %10 = fadd float %2, %9
  store float %10, ptr %8, align 4
  %11 = getelementptr inbounds nuw i8, ptr %0, i64 12
  store float %10, ptr %11, align 4
  %12 = fptosi float %6 to i32
  %13 = fptosi float %10 to i32
  %14 = load i32, ptr %0, align 8
  %.not.i = icmp eq i32 %14, 0
  br i1 %.not.i, label %48, label %15

15:                                               ; preds = %3
  %16 = getelementptr inbounds nuw i8, ptr %0, i64 28
  %17 = load i32, ptr %16, align 4
  %18 = icmp slt i32 %17, %12
  br i1 %18, label %22, label %19

19:                                               ; preds = %15
  %20 = getelementptr inbounds nuw i8, ptr %0, i64 4
  %21 = load i32, ptr %20, align 4
  %.not.i.i = icmp eq i32 %21, 0
  br i1 %.not.i.i, label %22, label %23

22:                                               ; preds = %19, %15
  store i32 %12, ptr %16, align 4
  br label %23

23:                                               ; preds = %22, %19
  %24 = getelementptr inbounds nuw i8, ptr %0, i64 36
  %25 = load i32, ptr %24, align 4
  %26 = icmp slt i32 %25, %13
  br i1 %26, label %30, label %27

27:                                               ; preds = %23
  %28 = getelementptr inbounds nuw i8, ptr %0, i64 4
  %29 = load i32, ptr %28, align 4
  %.not20.i.i = icmp eq i32 %29, 0
  br i1 %.not20.i.i, label %30, label %31

30:                                               ; preds = %27, %23
  store i32 %13, ptr %24, align 4
  br label %31

31:                                               ; preds = %30, %27
  %32 = getelementptr inbounds nuw i8, ptr %0, i64 24
  %33 = load i32, ptr %32, align 8
  %34 = icmp sgt i32 %33, %12
  br i1 %34, label %38, label %35

35:                                               ; preds = %31
  %36 = getelementptr inbounds nuw i8, ptr %0, i64 4
  %37 = load i32, ptr %36, align 4
  %.not21.i.i = icmp eq i32 %37, 0
  br i1 %.not21.i.i, label %38, label %39

38:                                               ; preds = %35, %31
  store i32 %12, ptr %32, align 8
  br label %39

39:                                               ; preds = %38, %35
  %40 = getelementptr inbounds nuw i8, ptr %0, i64 32
  %41 = load i32, ptr %40, align 8
  %42 = icmp sgt i32 %41, %13
  br i1 %42, label %46, label %43

43:                                               ; preds = %39
  %44 = getelementptr inbounds nuw i8, ptr %0, i64 4
  %45 = load i32, ptr %44, align 4
  %.not22.i.i = icmp eq i32 %45, 0
  br i1 %.not22.i.i, label %46, label %stbtt__track_vertex.exit.i

46:                                               ; preds = %43, %39
  store i32 %13, ptr %40, align 8
  br label %stbtt__track_vertex.exit.i

stbtt__track_vertex.exit.i:                       ; preds = %46, %43
  %47 = getelementptr inbounds nuw i8, ptr %0, i64 4
  store i32 1, ptr %47, align 4
  br label %stbtt__csctx_v.exit

48:                                               ; preds = %3
  %49 = getelementptr inbounds nuw i8, ptr %0, i64 40
  %50 = load ptr, ptr %49, align 8
  %51 = getelementptr inbounds nuw i8, ptr %0, i64 48
  %52 = load i32, ptr %51, align 8
  %53 = sext i32 %52 to i64
  %54 = getelementptr inbounds %struct.stbtt_vertex, ptr %50, i64 %53
  %55 = getelementptr inbounds nuw i8, ptr %54, i64 12
  store i8 1, ptr %55, align 2
  %56 = trunc i32 %12 to i16
  store i16 %56, ptr %54, align 2
  %57 = trunc i32 %13 to i16
  %58 = getelementptr inbounds nuw i8, ptr %54, i64 2
  store i16 %57, ptr %58, align 2
  %59 = getelementptr inbounds nuw i8, ptr %54, i64 4
  store i16 0, ptr %59, align 2
  %60 = getelementptr inbounds nuw i8, ptr %54, i64 6
  store i16 0, ptr %60, align 2
  %61 = load ptr, ptr %49, align 8
  %62 = load i32, ptr %51, align 8
  %63 = sext i32 %62 to i64
  %64 = getelementptr inbounds %struct.stbtt_vertex, ptr %61, i64 %63, i32 4
  store i16 0, ptr %64, align 2
  %65 = load ptr, ptr %49, align 8
  %66 = load i32, ptr %51, align 8
  %67 = sext i32 %66 to i64
  %68 = getelementptr inbounds %struct.stbtt_vertex, ptr %65, i64 %67, i32 5
  store i16 0, ptr %68, align 2
  br label %stbtt__csctx_v.exit

stbtt__csctx_v.exit:                              ; preds = %stbtt__track_vertex.exit.i, %48
  %69 = getelementptr inbounds nuw i8, ptr %0, i64 48
  %70 = load i32, ptr %69, align 8
  %71 = add nsw i32 %70, 1
  store i32 %71, ptr %69, align 8
  ret void
}